

Microchip MPLAB XC8 Assembler V2.30 build 20200825195618 
                                                                                               Sun Apr 11 14:24:17 2021

Microchip MPLAB XC8 C Compiler v2.30 (Free license) build 20200825195618 Og1 
     1                           	processor	18F27J53
     2                           	fnconf	rparam,??,?,0
     3                           	pagewidth 120
     4                           	opt	flic
     5                           	psect	smallconst,global,reloc=2,class=SMALLCONST,delta=1,noexec
     6                           	psect	cinit,global,reloc=2,class=CODE,delta=1
     7                           	psect	cstackCOMRAM,global,class=COMRAM,space=1,delta=1,lowdata,noexec
     8                           	psect	text0,global,reloc=2,class=CODE,delta=1
     9                           	psect	text1,global,reloc=2,class=CODE,delta=1
    10                           	psect	text2,global,reloc=2,class=CODE,delta=1
    11                           	psect	text3,global,reloc=2,class=CODE,delta=1
    12                           	psect	text4,global,reloc=2,class=CODE,delta=1
    13                           	psect	text5,global,reloc=2,class=CODE,delta=1
    14                           	psect	text6,global,reloc=2,class=CODE,delta=1,group=1
    15                           	psect	text7,global,reloc=2,class=CODE,delta=1,group=2
    16                           	psect	text8,global,reloc=2,class=CODE,delta=1
    17                           	psect	text9,global,reloc=2,class=CODE,delta=1
    18                           	psect	text10,global,reloc=2,class=CODE,delta=1
    19                           	psect	text11,global,reloc=2,class=CODE,delta=1
    20                           	psect	intsave_regs,global,class=BIGRAM,space=1,delta=1,noexec
    21                           	psect	rparam,global,class=COMRAM,space=1,delta=1,noexec
    22                           	psect	config,global,abs,ovrld,class=CONFIG,space=4,delta=1,noexec
    23  0000                     
    24                           ; Version 2.20
    25                           ; Generated 29/04/2020 GMT
    26                           ; 
    27                           ; Copyright © 2020, Microchip Technology Inc. and its subsidiaries ("Microchip")
    28                           ; All rights reserved.
    29                           ; 
    30                           ; This software is developed by Microchip Technology Inc. and its subsidiaries ("Microch
      +                          ip").
    31                           ; 
    32                           ; Redistribution and use in source and binary forms, with or without modification, are
    33                           ; permitted provided that the following conditions are met:
    34                           ; 
    35                           ;     1. Redistributions of source code must retain the above copyright notice, this lis
      +                          t of
    36                           ;        conditions and the following disclaimer.
    37                           ; 
    38                           ;     2. Redistributions in binary form must reproduce the above copyright notice, this 
      +                          list
    39                           ;        of conditions and the following disclaimer in the documentation and/or other
    40                           ;        materials provided with the distribution.
    41                           ; 
    42                           ;     3. Microchip's name may not be used to endorse or promote products derived from th
      +                          is
    43                           ;        software without specific prior written permission.
    44                           ; 
    45                           ; THIS SOFTWARE IS PROVIDED BY MICROCHIP "AS IS" AND ANY EXPRESS OR IMPLIED WARRANTIES,
    46                           ; INCLUDING, BUT NOT LIMITED TO, THE IMPLIED WARRANTIES OF MERCHANTABILITY AND FITNESS F
      +                          OR
    47                           ; PURPOSE ARE DISCLAIMED.  IN NO EVENT SHALL MICROCHIP BE LIABLE FOR ANY DIRECT, INDIREC
      +                          T,
    48                           ; INCIDENTAL, SPECIAL, EXEMPLARY, OR CONSEQUENTIAL DAMAGES (INCLUDING BUT NOT LIMITED TO
    49                           ; PROCUREMENT OF SUBSTITUTE GOODS OR SERVICES; LOSS OF USE, DATA OR PROFITS; OR BUSINESS
    50                           ; INTERRUPTION) HOWSOEVER CAUSED AND ON ANY THEORY OF LIABILITY, WHETHER IN CONTRACT, ST
      +                          RICT
    51                           ; LIABILITY, OR TORT (INCLUDING NEGLIGENCE OR OTHERWISE) ARISING IN ANY WAY OUT OF THE U
      +                          SE OF
    52                           ; THIS SOFTWARE, EVEN IF ADVISED OF THE POSSIBILITY OF SUCH DAMAGE.
    53                           ; 
    54                           ; 
    55                           ; Code-generator required, PIC18F27J53 Definitions
    56                           ; 
    57                           ; SFR Addresses
    58  0000                     
    59                           	psect	smallconst
    60  000F00                     __psmallconst:
    61                           	callstack 0
    62  000F00  00                 	db	0
    63  000F01                     _spi1_configuration:
    64                           	callstack 0
    65  000F01  00                 	db	0
    66  000F02  40                 	db	64
    67  000F03  01                 	db	1
    68  000F04  00                 	db	0
    69  000F05                     __end_of_spi1_configuration:
    70                           	callstack 0
    71  0000                     _ODCON3	set	3904
    72  0000                     _ODCON2	set	3905
    73  0000                     _ODCON1	set	3906
    74  0000                     _ANCON1	set	3913
    75  0000                     _ANCON0	set	3912
    76  0000                     _REFOCON	set	3901
    77  0000                     _PORTAbits	set	3968
    78  0000                     _LATAbits	set	3977
    79  0000                     _LATBbits	set	3978
    80  0000                     _INTCONbits	set	4082
    81  0000                     _INTCON2bits	set	4081
    82  0000                     _TRISC	set	3988
    83  0000                     _TRISB	set	3987
    84  0000                     _TRISA	set	3986
    85  0000                     _LATC	set	3979
    86  0000                     _LATB	set	3978
    87  0000                     _LATA	set	3977
    88  0000                     _OSCCON2	set	3975
    89  0000                     _OSCTUNE	set	3995
    90  0000                     _OSCCON	set	4051
    91  0000                     _PIR1bits	set	3998
    92  0000                     _SSP1BUF	set	4041
    93  0000                     _SSP1CON2	set	4037
    94  0000                     _SSP1CON1bits	set	4038
    95  0000                     _TRISBbits	set	3987
    96  0000                     _SSP1ADD	set	4040
    97  0000                     _SSP1CON1	set	4038
    98  0000                     _SSP1STAT	set	4039
    99  000F05  00                 	db	0	; dummy byte at the end
   100  0000                     
   101                           ; #config settings
   102                           
   103                           	psect	cinit
   104  001308                     __pcinit:
   105                           	callstack 0
   106  001308                     start_initialization:
   107                           	callstack 0
   108  001308                     __initialization:
   109                           	callstack 0
   110  001308                     end_of_initialization:
   111                           	callstack 0
   112  001308                     __end_of__initialization:
   113                           	callstack 0
   114  001308  0E00               	movlw	low (__Lsmallconst shr (0+16))
   115  00130A  6EF8               	movwf	tblptru,c
   116  00130C  0E0F               	movlw	high __Lsmallconst
   117  00130E  6EF7               	movwf	tblptrh,c
   118  001310  0100               	movlb	0
   119  001312  EF0B  F008         	goto	_main	;jump to C main() function
   120                           
   121                           	psect	cstackCOMRAM
   122  000001                     __pcstackCOMRAM:
   123                           	callstack 0
   124  000001                     ??_SPI1_Open:
   125  000001                     ?_abs:
   126                           	callstack 0
   127  000001                     ?___lldiv:
   128                           	callstack 0
   129  000001                     SPI1_WriteByte@byte:
   130                           	callstack 0
   131  000001                     abs@a:
   132                           	callstack 0
   133  000001                     ___lldiv@dividend:
   134                           	callstack 0
   135                           
   136                           ; 4 bytes @ 0x0
   137  000001                     	ds	1
   138  000002                     SPI1_Open@spi1UniqueConfiguration:
   139                           	callstack 0
   140                           
   141                           ; 1 bytes @ 0x1
   142  000002                     	ds	1
   143  000003                     ??_abs:
   144  000003                     writepot@level:
   145                           	callstack 0
   146                           
   147                           ; 1 bytes @ 0x2
   148  000003                     	ds	2
   149  000005                     ___lldiv@divisor:
   150                           	callstack 0
   151                           
   152                           ; 4 bytes @ 0x4
   153  000005                     	ds	4
   154  000009                     ___lldiv@quotient:
   155                           	callstack 0
   156                           
   157                           ; 4 bytes @ 0x8
   158  000009                     	ds	4
   159  00000D                     ___lldiv@counter:
   160                           	callstack 0
   161                           
   162                           ; 1 bytes @ 0xC
   163  00000D                     	ds	1
   164  00000E                     readloadcell@sensitivity:
   165                           	callstack 0
   166                           
   167                           ; 4 bytes @ 0xD
   168  00000E                     	ds	4
   169  000012                     ??_readloadcell:
   170                           
   171                           ; 1 bytes @ 0x11
   172  000012                     	ds	1
   173  000013                     readloadcell@x:
   174                           	callstack 0
   175                           
   176                           ; 2 bytes @ 0x12
   177  000013                     	ds	2
   178  000015                     readloadcell@i:
   179                           	callstack 0
   180                           
   181                           ; 2 bytes @ 0x14
   182  000015                     	ds	2
   183  000017                     readloadcell@data1:
   184                           	callstack 0
   185                           
   186                           ; 1 bytes @ 0x16
   187  000017                     	ds	1
   188  000018                     readloadcell@data2:
   189                           	callstack 0
   190                           
   191                           ; 4 bytes @ 0x17
   192  000018                     	ds	4
   193  00001C                     ??_main:
   194                           
   195                           ; 1 bytes @ 0x1B
   196  00001C                     	ds	2
   197  00001E                     main@diff:
   198                           	callstack 0
   199                           
   200                           ; 1 bytes @ 0x1D
   201  00001E                     	ds	1
   202  00001F                     main@load2:
   203                           	callstack 0
   204                           
   205                           ; 1 bytes @ 0x1E
   206  00001F                     	ds	1
   207  000020                     main@load:
   208                           	callstack 0
   209                           
   210                           ; 1 bytes @ 0x1F
   211  000020                     	ds	1
   212                           
   213 ;;
   214 ;;Main: autosize = 0, tempsize = 2, incstack = 0, save=0
   215 ;;
   216 ;; *************** function _main *****************
   217 ;; Defined at:
   218 ;;		line 16 in file "main.c"
   219 ;; Parameters:    Size  Location     Type
   220 ;;		None
   221 ;; Auto vars:     Size  Location     Type
   222 ;;  load            1   31[COMRAM] unsigned char 
   223 ;;  load2           1   30[COMRAM] unsigned char 
   224 ;;  diff            1   29[COMRAM] unsigned char 
   225 ;; Return value:  Size  Location     Type
   226 ;;                  1    wreg      void 
   227 ;; Registers used:
   228 ;;		wreg, status,2, status,0, tblptrl, tblptrh, tblptru, prodl, prodh, cstack
   229 ;; Tracked objects:
   230 ;;		On entry : 0/0
   231 ;;		On exit  : 0/0
   232 ;;		Unchanged: 0/0
   233 ;; Data sizes:     COMRAM   BANK0   BANK1   BANK2   BANK3   BANK4   BANK5   BANK6   BANK7   BANK8   BANK9  BANK10  BANK1
      +1  BANK12  BANK13  BANK14
   234 ;;      Params:         0       0       0       0       0       0       0       0       0       0       0       0       
      +0       0       0       0
   235 ;;      Locals:         3       0       0       0       0       0       0       0       0       0       0       0       
      +0       0       0       0
   236 ;;      Temps:          2       0       0       0       0       0       0       0       0       0       0       0       
      +0       0       0       0
   237 ;;      Totals:         5       0       0       0       0       0       0       0       0       0       0       0       
      +0       0       0       0
   238 ;;Total ram usage:        5 bytes
   239 ;; Hardware stack levels required when called:    2
   240 ;; This function calls:
   241 ;;		_SYSTEM_Initialize
   242 ;;		_abs
   243 ;;		_readloadcell
   244 ;;		_writepot
   245 ;; This function is called by:
   246 ;;		Startup code after reset
   247 ;; This function uses a non-reentrant model
   248 ;;
   249                           
   250                           	psect	text0
   251  001016                     __ptext0:
   252                           	callstack 0
   253  001016                     _main:
   254                           	callstack 29
   255  001016                     
   256                           ;main.c: 19:     uint8_t load2 = 0;
   257  001016  0E00               	movlw	0
   258  001018  6E1F               	movwf	main@load2^0,c
   259                           
   260                           ;main.c: 20:     uint8_t diff = 0;
   261  00101A  0E00               	movlw	0
   262  00101C  6E1E               	movwf	main@diff^0,c
   263  00101E                     
   264                           ;main.c: 22:     SYSTEM_Initialize();
   265  00101E  EC8B  F009         	call	_SYSTEM_Initialize	;wreg free
   266  001022                     
   267                           ;main.c: 24:     _delay((unsigned long)((2000)*(8000000/4000.0)));
   268  001022  0E15               	movlw	21
   269  001024  6E1D               	movwf	(??_main+1)^0,c
   270  001026  0E4B               	movlw	75
   271  001028  6E1C               	movwf	??_main^0,c
   272  00102A  0EBE               	movlw	190
   273  00102C                     u317:
   274  00102C  2EE8               	decfsz	wreg,f,c
   275  00102E  D7FE               	bra	u317
   276  001030  2E1C               	decfsz	??_main^0,f,c
   277  001032  D7FC               	bra	u317
   278  001034  2E1D               	decfsz	(??_main+1)^0,f,c
   279  001036  D7FA               	bra	u317
   280  001038  D000               	nop2	
   281  00103A                     
   282                           ;main.c: 25:     load = readloadcell(2000);
   283  00103A  0ED0               	movlw	208
   284  00103C  6E0E               	movwf	readloadcell@sensitivity^0,c
   285  00103E  0E07               	movlw	7
   286  001040  6E0F               	movwf	(readloadcell@sensitivity+1)^0,c
   287  001042  0E00               	movlw	0
   288  001044  6E10               	movwf	(readloadcell@sensitivity+2)^0,c
   289  001046  0E00               	movlw	0
   290  001048  6E11               	movwf	(readloadcell@sensitivity+3)^0,c
   291  00104A  EC83  F007         	call	_readloadcell	;wreg free
   292  00104E  6E20               	movwf	main@load^0,c
   293  001050                     
   294                           ;main.c: 26:     load2 = load;
   295  001050  C020  F01F         	movff	main@load,main@load2
   296  001054                     
   297                           ;main.c: 27:     _delay((unsigned long)((2000)*(8000000/4000.0)));
   298  001054  0E15               	movlw	21
   299  001056  6E1D               	movwf	(??_main+1)^0,c
   300  001058  0E4B               	movlw	75
   301  00105A  6E1C               	movwf	??_main^0,c
   302  00105C  0EBE               	movlw	190
   303  00105E                     u327:
   304  00105E  2EE8               	decfsz	wreg,f,c
   305  001060  D7FE               	bra	u327
   306  001062  2E1C               	decfsz	??_main^0,f,c
   307  001064  D7FC               	bra	u327
   308  001066  2E1D               	decfsz	(??_main+1)^0,f,c
   309  001068  D7FA               	bra	u327
   310  00106A  D000               	nop2	
   311  00106C                     l1132:
   312                           
   313                           ;main.c: 31:         load = readloadcell(2000);
   314  00106C  0ED0               	movlw	208
   315  00106E  6E0E               	movwf	readloadcell@sensitivity^0,c
   316  001070  0E07               	movlw	7
   317  001072  6E0F               	movwf	(readloadcell@sensitivity+1)^0,c
   318  001074  0E00               	movlw	0
   319  001076  6E10               	movwf	(readloadcell@sensitivity+2)^0,c
   320  001078  0E00               	movlw	0
   321  00107A  6E11               	movwf	(readloadcell@sensitivity+3)^0,c
   322  00107C  EC83  F007         	call	_readloadcell	;wreg free
   323  001080  6E20               	movwf	main@load^0,c
   324  001082                     
   325                           ;main.c: 33:         diff = abs(load - load2);
   326  001082  501F               	movf	main@load2^0,w,c
   327  001084  5C20               	subwf	main@load^0,w,c
   328  001086  6E01               	movwf	abs@a^0,c
   329  001088  6A02               	clrf	(abs@a+1)^0,c
   330  00108A  A0D8               	btfss	status,0,c
   331  00108C  0602               	decf	(abs@a+1)^0,f,c
   332  00108E  EC38  F009         	call	_abs	;wreg free
   333  001092  5001               	movf	?_abs^0,w,c
   334  001094  6E1E               	movwf	main@diff^0,c
   335                           
   336                           ;main.c: 36:         if(diff < 100 && load >= load2){
   337  001096  0E64               	movlw	100
   338  001098  601E               	cpfslt	main@diff^0,c
   339  00109A  EF51  F008         	goto	u281
   340  00109E  EF53  F008         	goto	u280
   341  0010A2                     u281:
   342  0010A2  EF61  F008         	goto	l1142
   343  0010A6                     u280:
   344  0010A6  501F               	movf	main@load2^0,w,c
   345  0010A8  5C20               	subwf	main@load^0,w,c
   346  0010AA  A0D8               	btfss	status,0,c
   347  0010AC  EF5A  F008         	goto	u291
   348  0010B0  EF5C  F008         	goto	u290
   349  0010B4                     u291:
   350  0010B4  EF61  F008         	goto	l1142
   351  0010B8                     u290:
   352  0010B8                     
   353                           ;main.c: 37:         writepot(load);
   354  0010B8  5020               	movf	main@load^0,w,c
   355  0010BA  EC16  F009         	call	_writepot
   356  0010BE                     
   357                           ;main.c: 38:         load2 = load;
   358  0010BE  C020  F01F         	movff	main@load,main@load2
   359  0010C2                     l1142:
   360                           
   361                           ;main.c: 41:         if(load <= load2){
   362  0010C2  5020               	movf	main@load^0,w,c
   363  0010C4  5C1F               	subwf	main@load2^0,w,c
   364  0010C6  A0D8               	btfss	status,0,c
   365  0010C8  EF68  F008         	goto	u301
   366  0010CC  EF6A  F008         	goto	u300
   367  0010D0                     u301:
   368  0010D0  EF6F  F008         	goto	l1148
   369  0010D4                     u300:
   370  0010D4                     
   371                           ;main.c: 42:         writepot(load);
   372  0010D4  5020               	movf	main@load^0,w,c
   373  0010D6  EC16  F009         	call	_writepot
   374  0010DA                     
   375                           ;main.c: 43:         load2 = load;
   376  0010DA  C020  F01F         	movff	main@load,main@load2
   377  0010DE                     l1148:
   378                           
   379                           ;main.c: 49: _delay((unsigned long)((50)*(8000000/4000.0)));
   380  0010DE  0E82               	movlw	130
   381  0010E0  6E1C               	movwf	??_main^0,c
   382  0010E2  0EDE               	movlw	222
   383  0010E4                     u337:
   384  0010E4  2EE8               	decfsz	wreg,f,c
   385  0010E6  D7FE               	bra	u337
   386  0010E8  2E1C               	decfsz	??_main^0,f,c
   387  0010EA  D7FC               	bra	u337
   388  0010EC  EF36  F008         	goto	l1132
   389  0010F0  EF00  F000         	goto	start
   390  0010F4                     __end_of_main:
   391                           	callstack 0
   392                           
   393 ;; *************** function _writepot *****************
   394 ;; Defined at:
   395 ;;		line 54 in file "main.c"
   396 ;; Parameters:    Size  Location     Type
   397 ;;  level           1    wreg     unsigned char 
   398 ;; Auto vars:     Size  Location     Type
   399 ;;  level           1    2[COMRAM] unsigned char 
   400 ;; Return value:  Size  Location     Type
   401 ;;                  1    wreg      void 
   402 ;; Registers used:
   403 ;;		wreg, status,2, status,0, tblptrl, tblptrh, tblptru, prodl, prodh, cstack
   404 ;; Tracked objects:
   405 ;;		On entry : 0/0
   406 ;;		On exit  : 0/0
   407 ;;		Unchanged: 0/0
   408 ;; Data sizes:     COMRAM   BANK0   BANK1   BANK2   BANK3   BANK4   BANK5   BANK6   BANK7   BANK8   BANK9  BANK10  BANK1
      +1  BANK12  BANK13  BANK14
   409 ;;      Params:         0       0       0       0       0       0       0       0       0       0       0       0       
      +0       0       0       0
   410 ;;      Locals:         1       0       0       0       0       0       0       0       0       0       0       0       
      +0       0       0       0
   411 ;;      Temps:          0       0       0       0       0       0       0       0       0       0       0       0       
      +0       0       0       0
   412 ;;      Totals:         1       0       0       0       0       0       0       0       0       0       0       0       
      +0       0       0       0
   413 ;;Total ram usage:        1 bytes
   414 ;; Hardware stack levels used:    1
   415 ;; Hardware stack levels required when called:    1
   416 ;; This function calls:
   417 ;;		_SPI1_Close
   418 ;;		_SPI1_Open
   419 ;;		_SPI1_WriteByte
   420 ;; This function is called by:
   421 ;;		_main
   422 ;; This function uses a non-reentrant model
   423 ;;
   424                           
   425                           	psect	text1
   426  00122C                     __ptext1:
   427                           	callstack 0
   428  00122C                     _writepot:
   429                           	callstack 29
   430                           
   431                           ;incstack = 0
   432                           ;writepot@level stored from wreg
   433  00122C  6E03               	movwf	writepot@level^0,c
   434  00122E                     
   435                           ;main.c: 55:     LATBbits.LATB0 = 0;
   436  00122E  908A               	bcf	138,0,c	;volatile
   437  001230                     
   438                           ;main.c: 56:     _delay((unsigned long)((5)*(8000000/4000000.0)));
   439  001230  0E03               	movlw	3
   440  001232                     u347:
   441  001232  2EE8               	decfsz	wreg,f,c
   442  001234  D7FE               	bra	u347
   443  001236  F000               	nop	
   444  001238                     
   445                           ;main.c: 57:     SPI1_Open(SPI1_DEFAULT);
   446  001238  0E00               	movlw	0
   447  00123A  ECCC  F008         	call	_SPI1_Open
   448  00123E                     
   449                           ;main.c: 58:     SPI1_WriteByte(0x00);
   450  00123E  0E00               	movlw	0
   451  001240  EC92  F009         	call	_SPI1_WriteByte
   452  001244                     
   453                           ;main.c: 59:     _delay((unsigned long)((2)*(8000000/4000000.0)));
   454  001244  D000               	nop2		;2 cycle nop
   455  001246  D000               	nop2		;2 cycle nop
   456  001248                     
   457                           ;main.c: 60:     SPI1_WriteByte(level);
   458  001248  5003               	movf	writepot@level^0,w,c
   459  00124A  EC92  F009         	call	_SPI1_WriteByte
   460  00124E                     
   461                           ;main.c: 61:     _delay((unsigned long)((5)*(8000000/4000000.0)));
   462  00124E  0E03               	movlw	3
   463  001250                     u357:
   464  001250  2EE8               	decfsz	wreg,f,c
   465  001252  D7FE               	bra	u357
   466  001254  F000               	nop	
   467  001256                     
   468                           ;main.c: 62:     SPI1_Close();
   469  001256  EC96  F009         	call	_SPI1_Close	;wreg free
   470  00125A                     
   471                           ;main.c: 63:     _delay((unsigned long)((4)*(8000000/4000000.0)));
   472  00125A  D000               	nop2		;2 cycle nop
   473  00125C  D000               	nop2		;2 cycle nop
   474  00125E  D000               	nop2		;2 cycle nop
   475  001260  D000               	nop2		;2 cycle nop
   476  001262                     
   477                           ;main.c: 64:     LATBbits.LATB0 = 1;
   478  001262  808A               	bsf	138,0,c	;volatile
   479  001264                     
   480                           ;main.c: 65:     _delay((unsigned long)((700)*(8000000/4000000.0)));
   481  001264  0EC8               	movlw	200
   482  001266                     u367:
   483  001266  D000               	nop2	
   484  001268  D000               	nop2	
   485  00126A  2EE8               	decfsz	wreg,f,c
   486  00126C  D7FC               	bra	u367
   487  00126E  0012               	return		;funcret
   488  001270                     __end_of_writepot:
   489                           	callstack 0
   490                           
   491 ;; *************** function _SPI1_WriteByte *****************
   492 ;; Defined at:
   493 ;;		line 131 in file "mcc_generated_files/spi1.c"
   494 ;; Parameters:    Size  Location     Type
   495 ;;  byte            1    wreg     unsigned char 
   496 ;; Auto vars:     Size  Location     Type
   497 ;;  byte            1    0[COMRAM] unsigned char 
   498 ;; Return value:  Size  Location     Type
   499 ;;                  1    wreg      void 
   500 ;; Registers used:
   501 ;;		wreg
   502 ;; Tracked objects:
   503 ;;		On entry : 0/0
   504 ;;		On exit  : 0/0
   505 ;;		Unchanged: 0/0
   506 ;; Data sizes:     COMRAM   BANK0   BANK1   BANK2   BANK3   BANK4   BANK5   BANK6   BANK7   BANK8   BANK9  BANK10  BANK1
      +1  BANK12  BANK13  BANK14
   507 ;;      Params:         0       0       0       0       0       0       0       0       0       0       0       0       
      +0       0       0       0
   508 ;;      Locals:         1       0       0       0       0       0       0       0       0       0       0       0       
      +0       0       0       0
   509 ;;      Temps:          0       0       0       0       0       0       0       0       0       0       0       0       
      +0       0       0       0
   510 ;;      Totals:         1       0       0       0       0       0       0       0       0       0       0       0       
      +0       0       0       0
   511 ;;Total ram usage:        1 bytes
   512 ;; Hardware stack levels used:    1
   513 ;; This function calls:
   514 ;;		Nothing
   515 ;; This function is called by:
   516 ;;		_writepot
   517 ;; This function uses a non-reentrant model
   518 ;;
   519                           
   520                           	psect	text2
   521  001324                     __ptext2:
   522                           	callstack 0
   523  001324                     _SPI1_WriteByte:
   524                           	callstack 29
   525                           
   526                           ;incstack = 0
   527                           ;SPI1_WriteByte@byte stored from wreg
   528  001324  6E01               	movwf	SPI1_WriteByte@byte^0,c
   529  001326                     
   530                           ;mcc_generated_files/spi1.c: 131: void SPI1_WriteByte(uint8_t byte);mcc_generated_files/
      +                          spi1.c: 132: {;mcc_generated_files/spi1.c: 133:     SSP1BUF = byte;
   531  001326  C001  FFC9         	movff	SPI1_WriteByte@byte,4041	;volatile
   532  00132A  0012               	return		;funcret
   533  00132C                     __end_of_SPI1_WriteByte:
   534                           	callstack 0
   535                           
   536 ;; *************** function _SPI1_Open *****************
   537 ;; Defined at:
   538 ;;		line 72 in file "mcc_generated_files/spi1.c"
   539 ;; Parameters:    Size  Location     Type
   540 ;;  spi1UniqueCo    1    wreg     enum E355
   541 ;; Auto vars:     Size  Location     Type
   542 ;;  spi1UniqueCo    1    1[COMRAM] enum E355
   543 ;; Return value:  Size  Location     Type
   544 ;;                  1    wreg      _Bool 
   545 ;; Registers used:
   546 ;;		wreg, status,2, status,0, tblptrl, tblptrh, tblptru, prodl, prodh
   547 ;; Tracked objects:
   548 ;;		On entry : 0/0
   549 ;;		On exit  : 0/0
   550 ;;		Unchanged: 0/0
   551 ;; Data sizes:     COMRAM   BANK0   BANK1   BANK2   BANK3   BANK4   BANK5   BANK6   BANK7   BANK8   BANK9  BANK10  BANK1
      +1  BANK12  BANK13  BANK14
   552 ;;      Params:         0       0       0       0       0       0       0       0       0       0       0       0       
      +0       0       0       0
   553 ;;      Locals:         1       0       0       0       0       0       0       0       0       0       0       0       
      +0       0       0       0
   554 ;;      Temps:          1       0       0       0       0       0       0       0       0       0       0       0       
      +0       0       0       0
   555 ;;      Totals:         2       0       0       0       0       0       0       0       0       0       0       0       
      +0       0       0       0
   556 ;;Total ram usage:        2 bytes
   557 ;; Hardware stack levels used:    1
   558 ;; This function calls:
   559 ;;		Nothing
   560 ;; This function is called by:
   561 ;;		_writepot
   562 ;; This function uses a non-reentrant model
   563 ;;
   564                           
   565                           	psect	text3
   566  001198                     __ptext3:
   567                           	callstack 0
   568  001198                     _SPI1_Open:
   569                           	callstack 29
   570                           
   571                           ;incstack = 0
   572                           ;SPI1_Open@spi1UniqueConfiguration stored from wreg
   573  001198  6E02               	movwf	SPI1_Open@spi1UniqueConfiguration^0,c
   574  00119A                     
   575                           ;mcc_generated_files/spi1.c: 72: _Bool SPI1_Open(spi1_modes_t spi1UniqueConfiguration);m
      +                          cc_generated_files/spi1.c: 73: {;mcc_generated_files/spi1.c: 74:     if(!SSP1CON1bits.SS
      +                          PEN)
   576  00119A  BAC6               	btfsc	198,5,c	;volatile
   577  00119C  EFD2  F008         	goto	u11
   578  0011A0  EFD4  F008         	goto	u10
   579  0011A4                     u11:
   580  0011A4  EF15  F009         	goto	l25
   581  0011A8                     u10:
   582  0011A8                     
   583                           ;mcc_generated_files/spi1.c: 75:     {;mcc_generated_files/spi1.c: 76:         SSP1STAT 
      +                          = spi1_configuration[spi1UniqueConfiguration].stat;
   584  0011A8  5002               	movf	SPI1_Open@spi1UniqueConfiguration^0,w,c
   585  0011AA  0D04               	mullw	4
   586  0011AC  0E01               	movlw	1
   587  0011AE  26F3               	addwf	243,f,c
   588  0011B0  0E00               	movlw	0
   589  0011B2  22F4               	addwfc	244,f,c
   590  0011B4  0E01               	movlw	low _spi1_configuration
   591  0011B6  24F3               	addwf	243,w,c
   592  0011B8  6EF6               	movwf	tblptrl,c
   593  0011BA  0E0F               	movlw	high _spi1_configuration
   594  0011BC  20F4               	addwfc	244,w,c
   595  0011BE  6EF7               	movwf	tblptrh,c
   596  0011C0                     	if	0	;There are less than 3 active tblptr bytes
   597  0011C0                     	endif
   598  0011C0  0008               	tblrd		*
   599  0011C2  CFF5 FFC7          	movff	tablat,4039	;volatile
   600                           
   601                           ;mcc_generated_files/spi1.c: 77:         SSP1CON1 = spi1_configuration[spi1UniqueConfigu
      +                          ration].con1;
   602  0011C6  5002               	movf	SPI1_Open@spi1UniqueConfiguration^0,w,c
   603  0011C8  0D04               	mullw	4
   604  0011CA  0E01               	movlw	low _spi1_configuration
   605  0011CC  24F3               	addwf	243,w,c
   606  0011CE  6EF6               	movwf	tblptrl,c
   607  0011D0  0E0F               	movlw	high _spi1_configuration
   608  0011D2  20F4               	addwfc	244,w,c
   609  0011D4  6EF7               	movwf	tblptrh,c
   610  0011D6                     	if	0	;There are less than 3 active tblptr bytes
   611  0011D6                     	endif
   612  0011D6  0008               	tblrd		*
   613  0011D8  CFF5 FFC6          	movff	tablat,4038	;volatile
   614  0011DC                     
   615                           ;mcc_generated_files/spi1.c: 78:         SSP1CON2 = 0x00;
   616  0011DC  0E00               	movlw	0
   617  0011DE  6EC5               	movwf	197,c	;volatile
   618  0011E0                     
   619                           ;mcc_generated_files/spi1.c: 79:         SSP1ADD = spi1_configuration[spi1UniqueConfigur
      +                          ation].add;
   620  0011E0  5002               	movf	SPI1_Open@spi1UniqueConfiguration^0,w,c
   621  0011E2  0D04               	mullw	4
   622  0011E4  0E02               	movlw	2
   623  0011E6  26F3               	addwf	243,f,c
   624  0011E8  0E00               	movlw	0
   625  0011EA  22F4               	addwfc	244,f,c
   626  0011EC  0E01               	movlw	low _spi1_configuration
   627  0011EE  24F3               	addwf	243,w,c
   628  0011F0  6EF6               	movwf	tblptrl,c
   629  0011F2  0E0F               	movlw	high _spi1_configuration
   630  0011F4  20F4               	addwfc	244,w,c
   631  0011F6  6EF7               	movwf	tblptrh,c
   632  0011F8                     	if	0	;There are less than 3 active tblptr bytes
   633  0011F8                     	endif
   634  0011F8  0008               	tblrd		*
   635  0011FA  CFF5 FFC8          	movff	tablat,4040	;volatile
   636  0011FE                     
   637                           ;mcc_generated_files/spi1.c: 80:         TRISBbits.TRISB4 = spi1_configuration[spi1Uniqu
      +                          eConfiguration].operation;
   638  0011FE  5002               	movf	SPI1_Open@spi1UniqueConfiguration^0,w,c
   639  001200  0D04               	mullw	4
   640  001202  0E03               	movlw	3
   641  001204  26F3               	addwf	243,f,c
   642  001206  0E00               	movlw	0
   643  001208  22F4               	addwfc	244,f,c
   644  00120A  0E01               	movlw	low _spi1_configuration
   645  00120C  24F3               	addwf	243,w,c
   646  00120E  6EF6               	movwf	tblptrl,c
   647  001210  0E0F               	movlw	high _spi1_configuration
   648  001212  20F4               	addwfc	244,w,c
   649  001214  6EF7               	movwf	tblptrh,c
   650  001216                     	if	0	;There are less than 3 active tblptr bytes
   651  001216                     	endif
   652  001216  0008               	tblrd		*
   653  001218  CFF5 F001          	movff	tablat,??_SPI1_Open
   654  00121C  3A01               	swapf	??_SPI1_Open^0,f,c
   655  00121E  5093               	movf	147,w,c	;volatile
   656  001220  1801               	xorwf	??_SPI1_Open^0,w,c
   657  001222  0BEF               	andlw	-17
   658  001224  1801               	xorwf	??_SPI1_Open^0,w,c
   659  001226  6E93               	movwf	147,c	;volatile
   660  001228                     
   661                           ;mcc_generated_files/spi1.c: 81:         SSP1CON1bits.SSPEN = 1;
   662  001228  8AC6               	bsf	198,5,c	;volatile
   663  00122A                     l25:
   664  00122A  0012               	return		;funcret
   665  00122C                     __end_of_SPI1_Open:
   666                           	callstack 0
   667                           
   668 ;; *************** function _SPI1_Close *****************
   669 ;; Defined at:
   670 ;;		line 87 in file "mcc_generated_files/spi1.c"
   671 ;; Parameters:    Size  Location     Type
   672 ;;		None
   673 ;; Auto vars:     Size  Location     Type
   674 ;;		None
   675 ;; Return value:  Size  Location     Type
   676 ;;                  1    wreg      void 
   677 ;; Registers used:
   678 ;;		None
   679 ;; Tracked objects:
   680 ;;		On entry : 0/0
   681 ;;		On exit  : 0/0
   682 ;;		Unchanged: 0/0
   683 ;; Data sizes:     COMRAM   BANK0   BANK1   BANK2   BANK3   BANK4   BANK5   BANK6   BANK7   BANK8   BANK9  BANK10  BANK1
      +1  BANK12  BANK13  BANK14
   684 ;;      Params:         0       0       0       0       0       0       0       0       0       0       0       0       
      +0       0       0       0
   685 ;;      Locals:         0       0       0       0       0       0       0       0       0       0       0       0       
      +0       0       0       0
   686 ;;      Temps:          0       0       0       0       0       0       0       0       0       0       0       0       
      +0       0       0       0
   687 ;;      Totals:         0       0       0       0       0       0       0       0       0       0       0       0       
      +0       0       0       0
   688 ;;Total ram usage:        0 bytes
   689 ;; Hardware stack levels used:    1
   690 ;; This function calls:
   691 ;;		Nothing
   692 ;; This function is called by:
   693 ;;		_writepot
   694 ;; This function uses a non-reentrant model
   695 ;;
   696                           
   697                           	psect	text4
   698  00132C                     __ptext4:
   699                           	callstack 0
   700  00132C                     _SPI1_Close:
   701                           	callstack 29
   702  00132C                     
   703                           ;mcc_generated_files/spi1.c: 89:     SSP1CON1bits.SSPEN = 0;
   704  00132C  9AC6               	bcf	198,5,c	;volatile
   705  00132E  0012               	return		;funcret
   706  001330                     __end_of_SPI1_Close:
   707                           	callstack 0
   708                           
   709 ;; *************** function _readloadcell *****************
   710 ;; Defined at:
   711 ;;		line 68 in file "main.c"
   712 ;; Parameters:    Size  Location     Type
   713 ;;  sensitivity     4   13[COMRAM] unsigned long 
   714 ;; Auto vars:     Size  Location     Type
   715 ;;  i               2   20[COMRAM] int 
   716 ;;  x               2   18[COMRAM] int 
   717 ;;  data2           4   23[COMRAM] unsigned long 
   718 ;;  data1           1   22[COMRAM] unsigned char 
   719 ;; Return value:  Size  Location     Type
   720 ;;                  1    wreg      unsigned char 
   721 ;; Registers used:
   722 ;;		wreg, status,2, status,0, cstack
   723 ;; Tracked objects:
   724 ;;		On entry : 0/0
   725 ;;		On exit  : 0/0
   726 ;;		Unchanged: 0/0
   727 ;; Data sizes:     COMRAM   BANK0   BANK1   BANK2   BANK3   BANK4   BANK5   BANK6   BANK7   BANK8   BANK9  BANK10  BANK1
      +1  BANK12  BANK13  BANK14
   728 ;;      Params:         4       0       0       0       0       0       0       0       0       0       0       0       
      +0       0       0       0
   729 ;;      Locals:         9       0       0       0       0       0       0       0       0       0       0       0       
      +0       0       0       0
   730 ;;      Temps:          1       0       0       0       0       0       0       0       0       0       0       0       
      +0       0       0       0
   731 ;;      Totals:        14       0       0       0       0       0       0       0       0       0       0       0       
      +0       0       0       0
   732 ;;Total ram usage:       14 bytes
   733 ;; Hardware stack levels used:    1
   734 ;; Hardware stack levels required when called:    1
   735 ;; This function calls:
   736 ;;		___lldiv
   737 ;; This function is called by:
   738 ;;		_main
   739 ;; This function uses a non-reentrant model
   740 ;;
   741                           
   742                           	psect	text5
   743  000F06                     __ptext5:
   744                           	callstack 0
   745  000F06                     _readloadcell:
   746                           	callstack 29
   747  000F06                     
   748                           ;main.c: 69: unsigned long data2 = 0;
   749  000F06  0E00               	movlw	0
   750  000F08  6E18               	movwf	readloadcell@data2^0,c
   751  000F0A  0E00               	movlw	0
   752  000F0C  6E19               	movwf	(readloadcell@data2+1)^0,c
   753  000F0E  0E00               	movlw	0
   754  000F10  6E1A               	movwf	(readloadcell@data2+2)^0,c
   755  000F12  0E00               	movlw	0
   756  000F14  6E1B               	movwf	(readloadcell@data2+3)^0,c
   757                           
   758                           ;main.c: 71:     for(int x = 0; x < 3; x++){
   759  000F16  0E00               	movlw	0
   760  000F18  6E14               	movwf	(readloadcell@x+1)^0,c
   761  000F1A  0E00               	movlw	0
   762  000F1C  6E13               	movwf	readloadcell@x^0,c
   763  000F1E                     l1068:
   764                           
   765                           ;main.c: 72:         for(int i = 0; i < 8; i++){
   766  000F1E  0E00               	movlw	0
   767  000F20  6E16               	movwf	(readloadcell@i+1)^0,c
   768  000F22  0E00               	movlw	0
   769  000F24  6E15               	movwf	readloadcell@i^0,c
   770  000F26                     l153:
   771                           
   772                           ;main.c: 73:             LATAbits.LATA1 = 1;
   773  000F26  8289               	bsf	137,1,c	;volatile
   774  000F28                     
   775                           ;main.c: 74:             _delay((unsigned long)((12)*(8000000/4000000.0)));
   776  000F28  0E08               	movlw	8
   777  000F2A                     u377:
   778  000F2A  2EE8               	decfsz	wreg,f,c
   779  000F2C  D7FE               	bra	u377
   780  000F2E                     
   781                           ;main.c: 75:             if(PORTAbits.RA0){
   782  000F2E  A080               	btfss	128,0,c	;volatile
   783  000F30  EF9C  F007         	goto	u221
   784  000F34  EF9E  F007         	goto	u220
   785  000F38                     u221:
   786  000F38  EFA6  F007         	goto	l1080
   787  000F3C                     u220:
   788  000F3C                     
   789                           ;main.c: 76:                 data2 <<= 1;
   790  000F3C  90D8               	bcf	status,0,c
   791  000F3E  3618               	rlcf	readloadcell@data2^0,f,c
   792  000F40  3619               	rlcf	(readloadcell@data2+1)^0,f,c
   793  000F42  361A               	rlcf	(readloadcell@data2+2)^0,f,c
   794  000F44  361B               	rlcf	(readloadcell@data2+3)^0,f,c
   795                           
   796                           ;main.c: 77:                 data2 |= 1;
   797  000F46  8018               	bsf	readloadcell@data2^0,0,c
   798                           
   799                           ;main.c: 78:             }
   800  000F48  EFAB  F007         	goto	l1082
   801  000F4C                     l1080:
   802                           
   803                           ;main.c: 80:                 data2 <<= 1;
   804  000F4C  90D8               	bcf	status,0,c
   805  000F4E  3618               	rlcf	readloadcell@data2^0,f,c
   806  000F50  3619               	rlcf	(readloadcell@data2+1)^0,f,c
   807  000F52  361A               	rlcf	(readloadcell@data2+2)^0,f,c
   808  000F54  361B               	rlcf	(readloadcell@data2+3)^0,f,c
   809  000F56                     l1082:
   810                           
   811                           ;main.c: 82:             LATAbits.LATA1 = 0;
   812  000F56  9289               	bcf	137,1,c	;volatile
   813  000F58                     
   814                           ;main.c: 83:             _delay((unsigned long)((6)*(8000000/4000000.0)));
   815  000F58  0E04               	movlw	4
   816  000F5A                     u387:
   817  000F5A  2EE8               	decfsz	wreg,f,c
   818  000F5C  D7FE               	bra	u387
   819  000F5E                     
   820                           ;main.c: 84:         }
   821  000F5E  4A15               	infsnz	readloadcell@i^0,f,c
   822  000F60  2A16               	incf	(readloadcell@i+1)^0,f,c
   823  000F62  BE16               	btfsc	(readloadcell@i+1)^0,7,c
   824  000F64  EFBD  F007         	goto	u231
   825  000F68  5016               	movf	(readloadcell@i+1)^0,w,c
   826  000F6A  E109               	bnz	u230
   827  000F6C  0E08               	movlw	8
   828  000F6E  5C15               	subwf	readloadcell@i^0,w,c
   829  000F70  A0D8               	btfss	status,0,c
   830  000F72  EFBD  F007         	goto	u231
   831  000F76  EFBF  F007         	goto	u230
   832  000F7A                     u231:
   833  000F7A  EF93  F007         	goto	l153
   834  000F7E                     u230:
   835  000F7E                     
   836                           ;main.c: 85:     }
   837  000F7E  4A13               	infsnz	readloadcell@x^0,f,c
   838  000F80  2A14               	incf	(readloadcell@x+1)^0,f,c
   839  000F82  BE14               	btfsc	(readloadcell@x+1)^0,7,c
   840  000F84  EFCD  F007         	goto	u241
   841  000F88  5014               	movf	(readloadcell@x+1)^0,w,c
   842  000F8A  E109               	bnz	u240
   843  000F8C  0E03               	movlw	3
   844  000F8E  5C13               	subwf	readloadcell@x^0,w,c
   845  000F90  A0D8               	btfss	status,0,c
   846  000F92  EFCD  F007         	goto	u241
   847  000F96  EFCF  F007         	goto	u240
   848  000F9A                     u241:
   849  000F9A  EF8F  F007         	goto	l1068
   850  000F9E                     u240:
   851  000F9E                     
   852                           ;main.c: 86:     LATAbits.LATA1 = 1;
   853  000F9E  8289               	bsf	137,1,c	;volatile
   854  000FA0                     
   855                           ;main.c: 87:     _delay((unsigned long)((12)*(8000000/4000000.0)));
   856  000FA0  0E08               	movlw	8
   857  000FA2                     u397:
   858  000FA2  2EE8               	decfsz	wreg,f,c
   859  000FA4  D7FE               	bra	u397
   860  000FA6                     
   861                           ;main.c: 88:     LATAbits.LATA1 = 0;
   862  000FA6  9289               	bcf	137,1,c	;volatile
   863  000FA8                     
   864                           ;main.c: 89:     data1 = data2 / sensitivity;
   865  000FA8  C018  F001         	movff	readloadcell@data2,___lldiv@dividend
   866  000FAC  C019  F002         	movff	readloadcell@data2+1,___lldiv@dividend+1
   867  000FB0  C01A  F003         	movff	readloadcell@data2+2,___lldiv@dividend+2
   868  000FB4  C01B  F004         	movff	readloadcell@data2+3,___lldiv@dividend+3
   869  000FB8  C00E  F005         	movff	readloadcell@sensitivity,___lldiv@divisor
   870  000FBC  C00F  F006         	movff	readloadcell@sensitivity+1,___lldiv@divisor+1
   871  000FC0  C010  F007         	movff	readloadcell@sensitivity+2,___lldiv@divisor+2
   872  000FC4  C011  F008         	movff	readloadcell@sensitivity+3,___lldiv@divisor+3
   873  000FC8  EC7A  F008         	call	___lldiv	;wreg free
   874  000FCC  5001               	movf	?___lldiv^0,w,c
   875  000FCE  6E17               	movwf	readloadcell@data1^0,c
   876  000FD0                     
   877                           ;main.c: 90:     _delay((unsigned long)((1)*(8000000/4000.0)));
   878  000FD0  0E03               	movlw	3
   879  000FD2  6E12               	movwf	??_readloadcell^0,c
   880  000FD4  0E98               	movlw	152
   881  000FD6                     u407:
   882  000FD6  2EE8               	decfsz	wreg,f,c
   883  000FD8  D7FE               	bra	u407
   884  000FDA  2E12               	decfsz	??_readloadcell^0,f,c
   885  000FDC  D7FC               	bra	u407
   886  000FDE                     
   887                           ;main.c: 91:     if(data2 > 497316 && data1 < 254 ){
   888  000FDE  501B               	movf	(readloadcell@data2+3)^0,w,c
   889  000FE0  E10D               	bnz	u250
   890  000FE2  0EA5               	movlw	165
   891  000FE4  5C18               	subwf	readloadcell@data2^0,w,c
   892  000FE6  0E96               	movlw	150
   893  000FE8  5819               	subwfb	(readloadcell@data2+1)^0,w,c
   894  000FEA  0E07               	movlw	7
   895  000FEC  581A               	subwfb	(readloadcell@data2+2)^0,w,c
   896  000FEE  A0D8               	btfss	status,0,c
   897  000FF0  EFFC  F007         	goto	u251
   898  000FF4  EFFE  F007         	goto	u250
   899  000FF8                     u251:
   900  000FF8  EF09  F008         	goto	l1112
   901  000FFC                     u250:
   902  000FFC  0EFE               	movlw	254
   903  000FFE  6017               	cpfslt	readloadcell@data1^0,c
   904  001000  EF04  F008         	goto	u261
   905  001004  EF06  F008         	goto	u260
   906  001008                     u261:
   907  001008  EF09  F008         	goto	l1112
   908  00100C                     u260:
   909  00100C                     
   910                           ;main.c: 92:         return 255;
   911  00100C  0EFF               	movlw	255
   912  00100E  EF0A  F008         	goto	l158
   913  001012                     l1112:
   914                           
   915                           ;main.c: 94:     return data1;}
   916  001012  5017               	movf	readloadcell@data1^0,w,c
   917  001014                     l158:
   918  001014  0012               	return		;funcret
   919  001016                     __end_of_readloadcell:
   920                           	callstack 0
   921                           
   922 ;; *************** function ___lldiv *****************
   923 ;; Defined at:
   924 ;;		line 7 in file "C:\Program Files\Microchip\xc8\v2.30\pic\sources\c99\common\__lldiv.c"
   925 ;; Parameters:    Size  Location     Type
   926 ;;  dividend        4    0[COMRAM] unsigned long 
   927 ;;  divisor         4    4[COMRAM] unsigned long 
   928 ;; Auto vars:     Size  Location     Type
   929 ;;  quotient        4    8[COMRAM] unsigned long 
   930 ;;  counter         1   12[COMRAM] unsigned char 
   931 ;; Return value:  Size  Location     Type
   932 ;;                  4    0[COMRAM] unsigned long 
   933 ;; Registers used:
   934 ;;		wreg, status,2, status,0
   935 ;; Tracked objects:
   936 ;;		On entry : 0/0
   937 ;;		On exit  : 0/0
   938 ;;		Unchanged: 0/0
   939 ;; Data sizes:     COMRAM   BANK0   BANK1   BANK2   BANK3   BANK4   BANK5   BANK6   BANK7   BANK8   BANK9  BANK10  BANK1
      +1  BANK12  BANK13  BANK14
   940 ;;      Params:         8       0       0       0       0       0       0       0       0       0       0       0       
      +0       0       0       0
   941 ;;      Locals:         5       0       0       0       0       0       0       0       0       0       0       0       
      +0       0       0       0
   942 ;;      Temps:          0       0       0       0       0       0       0       0       0       0       0       0       
      +0       0       0       0
   943 ;;      Totals:        13       0       0       0       0       0       0       0       0       0       0       0       
      +0       0       0       0
   944 ;;Total ram usage:       13 bytes
   945 ;; Hardware stack levels used:    1
   946 ;; This function calls:
   947 ;;		Nothing
   948 ;; This function is called by:
   949 ;;		_readloadcell
   950 ;; This function uses a non-reentrant model
   951 ;;
   952                           
   953                           	psect	text6
   954  0010F4                     __ptext6:
   955                           	callstack 0
   956  0010F4                     ___lldiv:
   957                           	callstack 29
   958  0010F4  0E00               	movlw	0
   959  0010F6  6E09               	movwf	___lldiv@quotient^0,c
   960  0010F8  0E00               	movlw	0
   961  0010FA  6E0A               	movwf	(___lldiv@quotient+1)^0,c
   962  0010FC  0E00               	movlw	0
   963  0010FE  6E0B               	movwf	(___lldiv@quotient+2)^0,c
   964  001100  0E00               	movlw	0
   965  001102  6E0C               	movwf	(___lldiv@quotient+3)^0,c
   966  001104  5005               	movf	___lldiv@divisor^0,w,c
   967  001106  1006               	iorwf	(___lldiv@divisor+1)^0,w,c
   968  001108  1007               	iorwf	(___lldiv@divisor+2)^0,w,c
   969  00110A  1008               	iorwf	(___lldiv@divisor+3)^0,w,c
   970  00110C  B4D8               	btfsc	status,2,c
   971  00110E  EF8B  F008         	goto	u191
   972  001112  EF8D  F008         	goto	u190
   973  001116                     u191:
   974  001116  EFC3  F008         	goto	l189
   975  00111A                     u190:
   976  00111A  0E01               	movlw	1
   977  00111C  6E0D               	movwf	___lldiv@counter^0,c
   978  00111E  EF97  F008         	goto	l1048
   979  001122                     l1046:
   980  001122  90D8               	bcf	status,0,c
   981  001124  3605               	rlcf	___lldiv@divisor^0,f,c
   982  001126  3606               	rlcf	(___lldiv@divisor+1)^0,f,c
   983  001128  3607               	rlcf	(___lldiv@divisor+2)^0,f,c
   984  00112A  3608               	rlcf	(___lldiv@divisor+3)^0,f,c
   985  00112C  2A0D               	incf	___lldiv@counter^0,f,c
   986  00112E                     l1048:
   987  00112E  AE08               	btfss	(___lldiv@divisor+3)^0,7,c
   988  001130  EF9C  F008         	goto	u201
   989  001134  EF9E  F008         	goto	u200
   990  001138                     u201:
   991  001138  EF91  F008         	goto	l1046
   992  00113C                     u200:
   993  00113C                     l1050:
   994  00113C  90D8               	bcf	status,0,c
   995  00113E  3609               	rlcf	___lldiv@quotient^0,f,c
   996  001140  360A               	rlcf	(___lldiv@quotient+1)^0,f,c
   997  001142  360B               	rlcf	(___lldiv@quotient+2)^0,f,c
   998  001144  360C               	rlcf	(___lldiv@quotient+3)^0,f,c
   999  001146  5005               	movf	___lldiv@divisor^0,w,c
  1000  001148  5C01               	subwf	___lldiv@dividend^0,w,c
  1001  00114A  5006               	movf	(___lldiv@divisor+1)^0,w,c
  1002  00114C  5802               	subwfb	(___lldiv@dividend+1)^0,w,c
  1003  00114E  5007               	movf	(___lldiv@divisor+2)^0,w,c
  1004  001150  5803               	subwfb	(___lldiv@dividend+2)^0,w,c
  1005  001152  5008               	movf	(___lldiv@divisor+3)^0,w,c
  1006  001154  5804               	subwfb	(___lldiv@dividend+3)^0,w,c
  1007  001156  A0D8               	btfss	status,0,c
  1008  001158  EFB0  F008         	goto	u211
  1009  00115C  EFB2  F008         	goto	u210
  1010  001160                     u211:
  1011  001160  EFBB  F008         	goto	l1058
  1012  001164                     u210:
  1013  001164  5005               	movf	___lldiv@divisor^0,w,c
  1014  001166  5E01               	subwf	___lldiv@dividend^0,f,c
  1015  001168  5006               	movf	(___lldiv@divisor+1)^0,w,c
  1016  00116A  5A02               	subwfb	(___lldiv@dividend+1)^0,f,c
  1017  00116C  5007               	movf	(___lldiv@divisor+2)^0,w,c
  1018  00116E  5A03               	subwfb	(___lldiv@dividend+2)^0,f,c
  1019  001170  5008               	movf	(___lldiv@divisor+3)^0,w,c
  1020  001172  5A04               	subwfb	(___lldiv@dividend+3)^0,f,c
  1021  001174  8009               	bsf	___lldiv@quotient^0,0,c
  1022  001176                     l1058:
  1023  001176  90D8               	bcf	status,0,c
  1024  001178  3208               	rrcf	(___lldiv@divisor+3)^0,f,c
  1025  00117A  3207               	rrcf	(___lldiv@divisor+2)^0,f,c
  1026  00117C  3206               	rrcf	(___lldiv@divisor+1)^0,f,c
  1027  00117E  3205               	rrcf	___lldiv@divisor^0,f,c
  1028  001180  2E0D               	decfsz	___lldiv@counter^0,f,c
  1029  001182  EF9E  F008         	goto	l1050
  1030  001186                     l189:
  1031  001186  C009  F001         	movff	___lldiv@quotient,?___lldiv
  1032  00118A  C00A  F002         	movff	___lldiv@quotient+1,?___lldiv+1
  1033  00118E  C00B  F003         	movff	___lldiv@quotient+2,?___lldiv+2
  1034  001192  C00C  F004         	movff	___lldiv@quotient+3,?___lldiv+3
  1035  001196  0012               	return		;funcret
  1036  001198                     __end_of___lldiv:
  1037                           	callstack 0
  1038                           
  1039 ;; *************** function _abs *****************
  1040 ;; Defined at:
  1041 ;;		line 1 in file "C:\Program Files\Microchip\xc8\v2.30\pic\sources\c99\common\abs.c"
  1042 ;; Parameters:    Size  Location     Type
  1043 ;;  a               2    0[COMRAM] int 
  1044 ;; Auto vars:     Size  Location     Type
  1045 ;;		None
  1046 ;; Return value:  Size  Location     Type
  1047 ;;                  2    0[COMRAM] int 
  1048 ;; Registers used:
  1049 ;;		wreg, status,2, status,0
  1050 ;; Tracked objects:
  1051 ;;		On entry : 0/0
  1052 ;;		On exit  : 0/0
  1053 ;;		Unchanged: 0/0
  1054 ;; Data sizes:     COMRAM   BANK0   BANK1   BANK2   BANK3   BANK4   BANK5   BANK6   BANK7   BANK8   BANK9  BANK10  BANK1
      +1  BANK12  BANK13  BANK14
  1055 ;;      Params:         2       0       0       0       0       0       0       0       0       0       0       0       
      +0       0       0       0
  1056 ;;      Locals:         0       0       0       0       0       0       0       0       0       0       0       0       
      +0       0       0       0
  1057 ;;      Temps:          2       0       0       0       0       0       0       0       0       0       0       0       
      +0       0       0       0
  1058 ;;      Totals:         4       0       0       0       0       0       0       0       0       0       0       0       
      +0       0       0       0
  1059 ;;Total ram usage:        4 bytes
  1060 ;; Hardware stack levels used:    1
  1061 ;; This function calls:
  1062 ;;		Nothing
  1063 ;; This function is called by:
  1064 ;;		_main
  1065 ;; This function uses a non-reentrant model
  1066 ;;
  1067                           
  1068                           	psect	text7
  1069  001270                     __ptext7:
  1070                           	callstack 0
  1071  001270                     _abs:
  1072                           	callstack 30
  1073  001270  BE02               	btfsc	(abs@a+1)^0,7,c
  1074  001272  EF45  F009         	goto	u270
  1075  001276  5002               	movf	(abs@a+1)^0,w,c
  1076  001278  E106               	bnz	u271
  1077  00127A  0401               	decf	abs@a^0,w,c
  1078  00127C  B0D8               	btfsc	status,0,c
  1079  00127E  EF43  F009         	goto	u271
  1080  001282  EF45  F009         	goto	u270
  1081  001286                     u271:
  1082  001286  EF53  F009         	goto	l837
  1083  00128A                     u270:
  1084  00128A  C001  F003         	movff	abs@a,??_abs
  1085  00128E  C002  F004         	movff	abs@a+1,??_abs+1
  1086  001292  1E03               	comf	??_abs^0,f,c
  1087  001294  1E04               	comf	(??_abs+1)^0,f,c
  1088  001296  4A03               	infsnz	??_abs^0,f,c
  1089  001298  2A04               	incf	(??_abs+1)^0,f,c
  1090  00129A  C003  F001         	movff	??_abs,?_abs
  1091  00129E  C004  F002         	movff	??_abs+1,?_abs+1
  1092  0012A2  EF57  F009         	goto	l840
  1093  0012A6                     l837:
  1094  0012A6  C001  F001         	movff	abs@a,?_abs
  1095  0012AA  C002  F002         	movff	abs@a+1,?_abs+1
  1096  0012AE                     l840:
  1097  0012AE  0012               	return		;funcret
  1098  0012B0                     __end_of_abs:
  1099                           	callstack 0
  1100                           
  1101 ;; *************** function _SYSTEM_Initialize *****************
  1102 ;; Defined at:
  1103 ;;		line 50 in file "mcc_generated_files/mcc.c"
  1104 ;; Parameters:    Size  Location     Type
  1105 ;;		None
  1106 ;; Auto vars:     Size  Location     Type
  1107 ;;		None
  1108 ;; Return value:  Size  Location     Type
  1109 ;;                  1    wreg      void 
  1110 ;; Registers used:
  1111 ;;		wreg, status,2, cstack
  1112 ;; Tracked objects:
  1113 ;;		On entry : 0/0
  1114 ;;		On exit  : 0/0
  1115 ;;		Unchanged: 0/0
  1116 ;; Data sizes:     COMRAM   BANK0   BANK1   BANK2   BANK3   BANK4   BANK5   BANK6   BANK7   BANK8   BANK9  BANK10  BANK1
      +1  BANK12  BANK13  BANK14
  1117 ;;      Params:         0       0       0       0       0       0       0       0       0       0       0       0       
      +0       0       0       0
  1118 ;;      Locals:         0       0       0       0       0       0       0       0       0       0       0       0       
      +0       0       0       0
  1119 ;;      Temps:          0       0       0       0       0       0       0       0       0       0       0       0       
      +0       0       0       0
  1120 ;;      Totals:         0       0       0       0       0       0       0       0       0       0       0       0       
      +0       0       0       0
  1121 ;;Total ram usage:        0 bytes
  1122 ;; Hardware stack levels used:    1
  1123 ;; Hardware stack levels required when called:    1
  1124 ;; This function calls:
  1125 ;;		_OSCILLATOR_Initialize
  1126 ;;		_PIN_MANAGER_Initialize
  1127 ;;		_SPI1_Initialize
  1128 ;; This function is called by:
  1129 ;;		_main
  1130 ;; This function uses a non-reentrant model
  1131 ;;
  1132                           
  1133                           	psect	text8
  1134  001316                     __ptext8:
  1135                           	callstack 0
  1136  001316                     _SYSTEM_Initialize:
  1137                           	callstack 29
  1138  001316                     
  1139                           ;mcc_generated_files/mcc.c: 53:     SPI1_Initialize();
  1140  001316  EC7B  F009         	call	_SPI1_Initialize	;wreg free
  1141                           
  1142                           ;mcc_generated_files/mcc.c: 54:     PIN_MANAGER_Initialize();
  1143  00131A  EC58  F009         	call	_PIN_MANAGER_Initialize	;wreg free
  1144                           
  1145                           ;mcc_generated_files/mcc.c: 55:     OSCILLATOR_Initialize();
  1146  00131E  EC71  F009         	call	_OSCILLATOR_Initialize	;wreg free
  1147  001322  0012               	return		;funcret
  1148  001324                     __end_of_SYSTEM_Initialize:
  1149                           	callstack 0
  1150                           
  1151 ;; *************** function _SPI1_Initialize *****************
  1152 ;; Defined at:
  1153 ;;		line 62 in file "mcc_generated_files/spi1.c"
  1154 ;; Parameters:    Size  Location     Type
  1155 ;;		None
  1156 ;; Auto vars:     Size  Location     Type
  1157 ;;		None
  1158 ;; Return value:  Size  Location     Type
  1159 ;;                  1    wreg      void 
  1160 ;; Registers used:
  1161 ;;		wreg, status,2
  1162 ;; Tracked objects:
  1163 ;;		On entry : 0/0
  1164 ;;		On exit  : 0/0
  1165 ;;		Unchanged: 0/0
  1166 ;; Data sizes:     COMRAM   BANK0   BANK1   BANK2   BANK3   BANK4   BANK5   BANK6   BANK7   BANK8   BANK9  BANK10  BANK1
      +1  BANK12  BANK13  BANK14
  1167 ;;      Params:         0       0       0       0       0       0       0       0       0       0       0       0       
      +0       0       0       0
  1168 ;;      Locals:         0       0       0       0       0       0       0       0       0       0       0       0       
      +0       0       0       0
  1169 ;;      Temps:          0       0       0       0       0       0       0       0       0       0       0       0       
      +0       0       0       0
  1170 ;;      Totals:         0       0       0       0       0       0       0       0       0       0       0       0       
      +0       0       0       0
  1171 ;;Total ram usage:        0 bytes
  1172 ;; Hardware stack levels used:    1
  1173 ;; This function calls:
  1174 ;;		Nothing
  1175 ;; This function is called by:
  1176 ;;		_SYSTEM_Initialize
  1177 ;; This function uses a non-reentrant model
  1178 ;;
  1179                           
  1180                           	psect	text9
  1181  0012F6                     __ptext9:
  1182                           	callstack 0
  1183  0012F6                     _SPI1_Initialize:
  1184                           	callstack 29
  1185  0012F6                     
  1186                           ;mcc_generated_files/spi1.c: 65:     SSP1STAT = 0x40;
  1187  0012F6  0E40               	movlw	64
  1188  0012F8  6EC7               	movwf	199,c	;volatile
  1189                           
  1190                           ;mcc_generated_files/spi1.c: 66:     SSP1CON1 = 0x00;
  1191  0012FA  0E00               	movlw	0
  1192  0012FC  6EC6               	movwf	198,c	;volatile
  1193                           
  1194                           ;mcc_generated_files/spi1.c: 67:     SSP1ADD = 0x01;
  1195  0012FE  0E01               	movlw	1
  1196  001300  6EC8               	movwf	200,c	;volatile
  1197  001302                     
  1198                           ;mcc_generated_files/spi1.c: 68:     TRISBbits.TRISB4 = 0;
  1199  001302  9893               	bcf	147,4,c	;volatile
  1200  001304                     
  1201                           ;mcc_generated_files/spi1.c: 69:     SSP1CON1bits.SSPEN = 0;
  1202  001304  9AC6               	bcf	198,5,c	;volatile
  1203  001306  0012               	return		;funcret
  1204  001308                     __end_of_SPI1_Initialize:
  1205                           	callstack 0
  1206                           
  1207 ;; *************** function _PIN_MANAGER_Initialize *****************
  1208 ;; Defined at:
  1209 ;;		line 52 in file "mcc_generated_files/pin_manager.c"
  1210 ;; Parameters:    Size  Location     Type
  1211 ;;		None
  1212 ;; Auto vars:     Size  Location     Type
  1213 ;;		None
  1214 ;; Return value:  Size  Location     Type
  1215 ;;                  1    wreg      void 
  1216 ;; Registers used:
  1217 ;;		wreg, status,2
  1218 ;; Tracked objects:
  1219 ;;		On entry : 0/0
  1220 ;;		On exit  : 0/0
  1221 ;;		Unchanged: 0/0
  1222 ;; Data sizes:     COMRAM   BANK0   BANK1   BANK2   BANK3   BANK4   BANK5   BANK6   BANK7   BANK8   BANK9  BANK10  BANK1
      +1  BANK12  BANK13  BANK14
  1223 ;;      Params:         0       0       0       0       0       0       0       0       0       0       0       0       
      +0       0       0       0
  1224 ;;      Locals:         0       0       0       0       0       0       0       0       0       0       0       0       
      +0       0       0       0
  1225 ;;      Temps:          0       0       0       0       0       0       0       0       0       0       0       0       
      +0       0       0       0
  1226 ;;      Totals:         0       0       0       0       0       0       0       0       0       0       0       0       
      +0       0       0       0
  1227 ;;Total ram usage:        0 bytes
  1228 ;; Hardware stack levels used:    1
  1229 ;; This function calls:
  1230 ;;		Nothing
  1231 ;; This function is called by:
  1232 ;;		_SYSTEM_Initialize
  1233 ;; This function uses a non-reentrant model
  1234 ;;
  1235                           
  1236                           	psect	text10
  1237  0012B0                     __ptext10:
  1238                           	callstack 0
  1239  0012B0                     _PIN_MANAGER_Initialize:
  1240                           	callstack 29
  1241  0012B0                     
  1242                           ;mcc_generated_files/pin_manager.c: 57:     LATA = 0x00;
  1243  0012B0  0E00               	movlw	0
  1244  0012B2  6E89               	movwf	137,c	;volatile
  1245                           
  1246                           ;mcc_generated_files/pin_manager.c: 58:     LATB = 0x03;
  1247  0012B4  0E03               	movlw	3
  1248  0012B6  6E8A               	movwf	138,c	;volatile
  1249                           
  1250                           ;mcc_generated_files/pin_manager.c: 59:     LATC = 0x00;
  1251  0012B8  0E00               	movlw	0
  1252  0012BA  6E8B               	movwf	139,c	;volatile
  1253                           
  1254                           ;mcc_generated_files/pin_manager.c: 64:     TRISA = 0xED;
  1255  0012BC  0EED               	movlw	237
  1256  0012BE  6E92               	movwf	146,c	;volatile
  1257                           
  1258                           ;mcc_generated_files/pin_manager.c: 65:     TRISB = 0xEC;
  1259  0012C0  0EEC               	movlw	236
  1260  0012C2  6E93               	movwf	147,c	;volatile
  1261                           
  1262                           ;mcc_generated_files/pin_manager.c: 66:     TRISC = 0x47;
  1263  0012C4  0E47               	movlw	71
  1264  0012C6  6E94               	movwf	148,c	;volatile
  1265                           
  1266                           ;mcc_generated_files/pin_manager.c: 71:     ANCON0 = 0x03;
  1267  0012C8  0E03               	movlw	3
  1268  0012CA  010F               	movlb	15	; () banked
  1269  0012CC  6F48               	movwf	72,b	;volatile
  1270                           
  1271                           ;mcc_generated_files/pin_manager.c: 72:     ANCON1 = 0x14;
  1272  0012CE  0E14               	movlw	20
  1273  0012D0  6F49               	movwf	73,b	;volatile
  1274  0012D2                     
  1275                           ; BSR set to: 15
  1276                           ;mcc_generated_files/pin_manager.c: 77:     INTCON2bits.nRBPU = 1;
  1277  0012D2  8EF1               	bsf	241,7,c	;volatile
  1278                           
  1279                           ;mcc_generated_files/pin_manager.c: 82:     ODCON1 = 0x00;
  1280  0012D4  0E00               	movlw	0
  1281  0012D6  6F42               	movwf	66,b	;volatile
  1282                           
  1283                           ;mcc_generated_files/pin_manager.c: 83:     ODCON2 = 0x00;
  1284  0012D8  0E00               	movlw	0
  1285  0012DA  6F41               	movwf	65,b	;volatile
  1286                           
  1287                           ;mcc_generated_files/pin_manager.c: 84:     ODCON3 = 0x00;
  1288  0012DC  0E00               	movlw	0
  1289  0012DE  6F40               	movwf	64,b	;volatile
  1290  0012E0                     
  1291                           ; BSR set to: 15
  1292  0012E0  0012               	return		;funcret
  1293  0012E2                     __end_of_PIN_MANAGER_Initialize:
  1294                           	callstack 0
  1295                           
  1296 ;; *************** function _OSCILLATOR_Initialize *****************
  1297 ;; Defined at:
  1298 ;;		line 58 in file "mcc_generated_files/mcc.c"
  1299 ;; Parameters:    Size  Location     Type
  1300 ;;		None
  1301 ;; Auto vars:     Size  Location     Type
  1302 ;;		None
  1303 ;; Return value:  Size  Location     Type
  1304 ;;                  1    wreg      void 
  1305 ;; Registers used:
  1306 ;;		wreg, status,2
  1307 ;; Tracked objects:
  1308 ;;		On entry : 0/0
  1309 ;;		On exit  : 0/0
  1310 ;;		Unchanged: 0/0
  1311 ;; Data sizes:     COMRAM   BANK0   BANK1   BANK2   BANK3   BANK4   BANK5   BANK6   BANK7   BANK8   BANK9  BANK10  BANK1
      +1  BANK12  BANK13  BANK14
  1312 ;;      Params:         0       0       0       0       0       0       0       0       0       0       0       0       
      +0       0       0       0
  1313 ;;      Locals:         0       0       0       0       0       0       0       0       0       0       0       0       
      +0       0       0       0
  1314 ;;      Temps:          0       0       0       0       0       0       0       0       0       0       0       0       
      +0       0       0       0
  1315 ;;      Totals:         0       0       0       0       0       0       0       0       0       0       0       0       
      +0       0       0       0
  1316 ;;Total ram usage:        0 bytes
  1317 ;; Hardware stack levels used:    1
  1318 ;; This function calls:
  1319 ;;		Nothing
  1320 ;; This function is called by:
  1321 ;;		_SYSTEM_Initialize
  1322 ;; This function uses a non-reentrant model
  1323 ;;
  1324                           
  1325                           	psect	text11
  1326  0012E2                     __ptext11:
  1327                           	callstack 0
  1328  0012E2                     _OSCILLATOR_Initialize:
  1329                           	callstack 29
  1330  0012E2                     
  1331                           ;mcc_generated_files/mcc.c: 61:     OSCCON = 0x73;
  1332  0012E2  0E73               	movlw	115
  1333  0012E4  6ED3               	movwf	211,c	;volatile
  1334                           
  1335                           ;mcc_generated_files/mcc.c: 63:     OSCTUNE = 0x00;
  1336  0012E6  0E00               	movlw	0
  1337  0012E8  6E9B               	movwf	155,c	;volatile
  1338                           
  1339                           ;mcc_generated_files/mcc.c: 65:     REFOCON = 0x00;
  1340  0012EA  0E00               	movlw	0
  1341  0012EC  010F               	movlb	15	; () banked
  1342  0012EE  6F3D               	movwf	61,b	;volatile
  1343                           
  1344                           ;mcc_generated_files/mcc.c: 67:     OSCCON2 = 0x14;
  1345  0012F0  0E14               	movlw	20
  1346  0012F2  6E87               	movwf	135,c	;volatile
  1347  0012F4                     
  1348                           ; BSR set to: 15
  1349  0012F4  0012               	return		;funcret
  1350  0012F6                     __end_of_OSCILLATOR_Initialize:
  1351                           	callstack 0
  1352                           
  1353                           	psect	rparam
  1354  0000                     
  1355                           	psect	config
  1356                           
  1357                           ;Config register CONFIG1L @ 0x1FFF8
  1358                           ;	Watchdog Timer
  1359                           ;	WDTEN = OFF, Disabled - Controlled by SWDTEN bit
  1360                           ;	PLL Prescaler Selection
  1361                           ;	PLLDIV = 1, No prescale (4 MHz oscillator input drives PLL directly)
  1362                           ;	PLL Enable Configuration Bit
  1363                           ;	CFGPLLEN = OFF, PLL Disabled
  1364                           ;	Stack Overflow/Underflow Reset
  1365                           ;	STVREN = OFF, Disabled
  1366                           ;	Extended Instruction Set
  1367                           ;	XINST = OFF, Disabled
  1368  1FFF8                     	org	131064
  1369  1FFF8  9E                 	db	158
  1370                           
  1371                           ;Config register CONFIG1H @ 0x1FFF9
  1372                           ;	CPU System Clock Postscaler
  1373                           ;	CPUDIV = OSC1, No CPU system clock divide
  1374                           ;	Code Protect
  1375                           ;	CP0 = OFF, Program memory is not code-protected
  1376  1FFF9                     	org	131065
  1377  1FFF9  F7                 	db	247
  1378                           
  1379                           ;Config register CONFIG2L @ 0x1FFFA
  1380                           ;	Oscillator
  1381                           ;	OSC = INTOSCO, INTOSCO (CLKO-RA6)
  1382                           ;	T1OSC/SOSC Power Selection Bits
  1383                           ;	SOSCSEL = DIG, Digital (SCLKI) mode selected
  1384                           ;	EC Clock Out Enable Bit
  1385                           ;	CLKOEC = ON, CLKO output enabled on the RA6 pin
  1386                           ;	Fail-Safe Clock Monitor
  1387                           ;	FCMEN = OFF, Disabled
  1388                           ;	Internal External Oscillator Switch Over Mode
  1389                           ;	IESO = OFF, Disabled
  1390  1FFFA                     	org	131066
  1391  1FFFA  31                 	db	49
  1392                           
  1393                           ;Config register CONFIG2H @ 0x1FFFB
  1394                           ;	Watchdog Postscaler
  1395                           ;	WDTPS = 32768, 1:32768
  1396  1FFFB                     	org	131067
  1397  1FFFB  FF                 	db	255
  1398                           
  1399                           ;Config register CONFIG3L @ 0x1FFFC
  1400                           ;	DSWDT Clock Select
  1401                           ;	DSWDTOSC = INTOSCREF, DSWDT uses INTRC
  1402                           ;	RTCC Clock Select
  1403                           ;	RTCOSC = T1OSCREF, RTCC uses T1OSC/T1CKI
  1404                           ;	Deep Sleep BOR
  1405                           ;	DSBOREN = OFF, Disabled
  1406                           ;	Deep Sleep Watchdog Timer
  1407                           ;	DSWDTEN = OFF, Disabled
  1408                           ;	Deep Sleep Watchdog Postscaler
  1409                           ;	DSWDTPS = G2, 1:2,147,483,648 (25.7 days)
  1410  1FFFC                     	org	131068
  1411  1FFFC  F3                 	db	243
  1412                           
  1413                           ;Config register CONFIG3H @ 0x1FFFD
  1414                           ;	IOLOCK One-Way Set Enable bit
  1415                           ;	IOL1WAY = ON, The IOLOCK bit (PPSCON<0>) can be set once
  1416                           ;	ADC 10 or 12 Bit Select
  1417                           ;	ADCSEL = BIT10, 10 - Bit ADC Enabled
  1418                           ;	MSSP address masking
  1419                           ;	MSSP7B_EN = MSK7, 7 Bit address masking mode
  1420  1FFFD                     	org	131069
  1421  1FFFD  FB                 	db	251
  1422                           
  1423                           ;Config register CONFIG4L @ 0x1FFFE
  1424                           ;	Write/Erase Protect Page Start/End Location
  1425                           ;	WPFP = PAGE_127, Write Protect Program Flash Page 127
  1426                           ;	Write/Erase Protect Configuration Region
  1427                           ;	WPCFG = OFF, Configuration Words page not erase/write-protected
  1428  1FFFE                     	org	131070
  1429  1FFFE  FF                 	db	255
  1430                           
  1431                           ;Config register CONFIG4H @ 0x1FFFF
  1432                           ;	Write Protect Disable bit
  1433                           ;	WPDIS = OFF, WPFP<6:0>/WPEND region ignored
  1434                           ;	Write/Erase Protect Region Select bit (valid when WPDIS = 0)
  1435                           ;	WPEND = PAGE_WPFP, Pages WPFP<6:0> through Configuration Words erase/write protected
  1436                           ;	Low Speed USB mode with 48 MHz system clock bit
  1437                           ;	LS48MHZ = SYS48X8, System clock at 48 MHz USB CLKEN divide-by is set to 8
  1438  1FFFF                     	org	131071
  1439  1FFFF  FB                 	db	251
  1440                           tosu	equ	0xFFF
  1441                           tosh	equ	0xFFE
  1442                           tosl	equ	0xFFD
  1443                           stkptr	equ	0xFFC
  1444                           pclatu	equ	0xFFB
  1445                           pclath	equ	0xFFA
  1446                           pcl	equ	0xFF9
  1447                           tblptru	equ	0xFF8
  1448                           tblptrh	equ	0xFF7
  1449                           tblptrl	equ	0xFF6
  1450                           tablat	equ	0xFF5
  1451                           prodh	equ	0xFF4
  1452                           prodl	equ	0xFF3
  1453                           indf0	equ	0xFEF
  1454                           postinc0	equ	0xFEE
  1455                           postdec0	equ	0xFED
  1456                           preinc0	equ	0xFEC
  1457                           plusw0	equ	0xFEB
  1458                           fsr0h	equ	0xFEA
  1459                           fsr0l	equ	0xFE9
  1460                           wreg	equ	0xFE8
  1461                           indf1	equ	0xFE7
  1462                           postinc1	equ	0xFE6
  1463                           postdec1	equ	0xFE5
  1464                           preinc1	equ	0xFE4
  1465                           plusw1	equ	0xFE3
  1466                           fsr1h	equ	0xFE2
  1467                           fsr1l	equ	0xFE1
  1468                           bsr	equ	0xFE0
  1469                           indf2	equ	0xFDF
  1470                           postinc2	equ	0xFDE
  1471                           postdec2	equ	0xFDD
  1472                           preinc2	equ	0xFDC
  1473                           plusw2	equ	0xFDB
  1474                           fsr2h	equ	0xFDA
  1475                           fsr2l	equ	0xFD9
  1476                           status	equ	0xFD8

Data Sizes:
    Strings     0
    Constant    4
    Data        0
    BSS         0
    Persistent  0
    Stack       0

Auto Spaces:
    Space          Size  Autos    Used
    COMRAM           95     32      32
    BANK0           160      0       0
    BANK1           256      0       0
    BANK2           256      0       0
    BANK3           256      0       0
    BANK4           256      0       0
    BANK5           256      0       0
    BANK6           256      0       0
    BANK7           256      0       0
    BANK8           256      0       0
    BANK9           256      0       0
    BANK10          256      0       0
    BANK11          256      0       0
    BANK12          256      0       0
    BANK13          256      0       0
    BANK14          176      0       0

Pointer List with Targets:

    None.

Critical Paths under _main in COMRAM

    _main->_readloadcell
    _writepot->_SPI1_Open
    _readloadcell->___lldiv

Critical Paths under _main in BANK0

    None.

Critical Paths under _main in BANK1

    None.

Critical Paths under _main in BANK2

    None.

Critical Paths under _main in BANK3

    None.

Critical Paths under _main in BANK4

    None.

Critical Paths under _main in BANK5

    None.

Critical Paths under _main in BANK6

    None.

Critical Paths under _main in BANK7

    None.

Critical Paths under _main in BANK8

    None.

Critical Paths under _main in BANK9

    None.

Critical Paths under _main in BANK10

    None.

Critical Paths under _main in BANK11

    None.

Critical Paths under _main in BANK12

    None.

Critical Paths under _main in BANK13

    None.

Critical Paths under _main in BANK14

    None.

Call Graph Tables:

 ---------------------------------------------------------------------------------
 (Depth) Function   	        Calls       Base Space   Used Autos Params    Refs
 ---------------------------------------------------------------------------------
 (0) _main                                                 5     5      0    1179
                                             27 COMRAM     5     5      0
                  _SYSTEM_Initialize
                                _abs
                       _readloadcell
                           _writepot
 ---------------------------------------------------------------------------------
 (1) _writepot                                             1     1      0      90
                                              2 COMRAM     1     1      0
                         _SPI1_Close
                          _SPI1_Open
                     _SPI1_WriteByte
 ---------------------------------------------------------------------------------
 (2) _SPI1_WriteByte                                       1     1      0      15
                                              0 COMRAM     1     1      0
 ---------------------------------------------------------------------------------
 (2) _SPI1_Open                                            2     2      0      60
                                              0 COMRAM     2     2      0
 ---------------------------------------------------------------------------------
 (2) _SPI1_Close                                           0     0      0       0
 ---------------------------------------------------------------------------------
 (1) _readloadcell                                        14    10      4     674
                                             13 COMRAM    14    10      4
                            ___lldiv
 ---------------------------------------------------------------------------------
 (2) ___lldiv                                             13     5      8     314
                                              0 COMRAM    13     5      8
 ---------------------------------------------------------------------------------
 (1) _abs                                                  4     2      2     142
                                              0 COMRAM     4     2      2
 ---------------------------------------------------------------------------------
 (1) _SYSTEM_Initialize                                    0     0      0       0
              _OSCILLATOR_Initialize
             _PIN_MANAGER_Initialize
                    _SPI1_Initialize
 ---------------------------------------------------------------------------------
 (2) _SPI1_Initialize                                      0     0      0       0
 ---------------------------------------------------------------------------------
 (2) _PIN_MANAGER_Initialize                               0     0      0       0
 ---------------------------------------------------------------------------------
 (2) _OSCILLATOR_Initialize                                0     0      0       0
 ---------------------------------------------------------------------------------
 Estimated maximum stack depth 2
 ---------------------------------------------------------------------------------

 Call Graph Graphs:

 _main (ROOT)
   _SYSTEM_Initialize
     _OSCILLATOR_Initialize
     _PIN_MANAGER_Initialize
     _SPI1_Initialize
   _abs
   _readloadcell
     ___lldiv
   _writepot
     _SPI1_Close
     _SPI1_Open
     _SPI1_WriteByte

 Address spaces:
Name               Size   Autos  Total    Cost      Usage
BITCOMRAM           5F      0       0       0        0.0%
NULL                 0      0       0       0        0.0%
CODE                 0      0       0       0        0.0%
COMRAM              5F     20      20       1       33.7%
STACK                0      0       0       2        0.0%
DATA                 0      0       0       3        0.0%
BITBANK0            A0      0       0       4        0.0%
BANK0               A0      0       0       5        0.0%
ABS                  0      0       0       6        0.0%
BITBANK1           100      0       0       7        0.0%
BANK1              100      0       0       8        0.0%
BITBANK2           100      0       0       9        0.0%
BANK2              100      0       0      10        0.0%
BITBANK3           100      0       0      11        0.0%
BANK3              100      0       0      12        0.0%
BITBANK4           100      0       0      13        0.0%
BANK4              100      0       0      14        0.0%
BITBANK5           100      0       0      15        0.0%
BANK5              100      0       0      16        0.0%
BITBANK6           100      0       0      17        0.0%
BANK6              100      0       0      18        0.0%
BITBANK7           100      0       0      19        0.0%
BANK7              100      0       0      20        0.0%
BITBANK8           100      0       0      21        0.0%
BANK8              100      0       0      22        0.0%
BITBANK9           100      0       0      23        0.0%
BANK9              100      0       0      24        0.0%
BITBANK10          100      0       0      25        0.0%
BANK10             100      0       0      26        0.0%
BITBANK11          100      0       0      27        0.0%
BANK11             100      0       0      28        0.0%
BITBANK12          100      0       0      29        0.0%
BANK12             100      0       0      30        0.0%
BITBANK13          100      0       0      31        0.0%
BANK13             100      0       0      32        0.0%
BITBANK14           B0      0       0      33        0.0%
BANK14              B0      0       0      34        0.0%
BIGRAM             EAF      0       0      35        0.0%
BITSFR_2             0      0       0     200        0.0%
SFR_2                0      0       0     200        0.0%
BITSFR_1             0      0       0     200        0.0%
SFR_1                0      0       0     200        0.0%
BITSFR               0      0       0     200        0.0%
SFR                  0      0       0     200        0.0%


Microchip Technology PIC18 Macro Assembler V2.30 build 20200825195618 
Symbol Table                                                                                   Sun Apr 11 14:24:17 2021

              SPI1_WriteByte@byte 0001                                l21 1306  
                              l25 122A                                l28 132E  
                              l81 12F4                                l58 132A  
                              l78 1322                                u10 11A8  
                              u11 11A4                               l110 12E0  
                             l152 0F9E                               l153 0F26  
                             l148 126E                               l158 1014  
                             l196 1196                               l189 1186  
                             l840 12AE                               l842 12F6  
                             l850 11A8                               l844 1302  
                             l852 11DC                               l837 12A6  
                             l870 12E2                               l846 1304  
                             l862 132C                               l854 11E0  
                             l856 11FE                               l848 119A  
                             l864 1326                               l960 1238  
                             l866 12B0                               l858 1228  
                             l970 1256                               l962 123E  
                             l868 12D2                               l972 125A  
                             l964 1244                               l956 122E  
                             l974 1262                               l966 1248  
                             l958 1230                               l896 1316  
                             l976 1264                               l968 124E  
                             u200 113C                               u201 1138  
                             u210 1164                               u211 1160  
                             u220 0F3C                               u300 10D4  
                             u221 0F38                               u301 10D0  
                             u230 0F7E                               u231 0F7A  
                             u240 0F9E                               u241 0F9A  
                             u250 0FFC                               u251 0FF8  
                             u260 100C                               u261 1008  
                             u317 102C                               u270 128A  
                             u190 111A                               u271 1286  
                             u191 1116                               u407 0FD6  
                             u327 105E                               u280 10A6  
                             u337 10E4                               u281 10A2  
                             u290 10B8                               u347 1232  
                             u291 10B4                               u357 1250  
                             u367 1266                               u377 0F2A  
                             u387 0F5A                               u397 0FA2  
                             _abs 1270                               wreg 000FE8  
                            l1100 0FD0                              l1102 0FDE  
                            l1040 10F4                              l1104 0FFC  
                            l1112 1012                              l1120 1016  
                            l1050 113C                              l1042 1104  
                            l1106 100C                              l1130 1054  
                            l1122 101E                              ?_abs 0001  
                            l1116 1270                              l1060 1180  
                            l1052 1146                              l1044 111A  
                            l1140 10BE                              l1132 106C  
                            l1124 1022                              l1118 128A  
                            l1054 1164                              l1046 1122  
                            l1062 0F06                              l1142 10C2  
                            l1134 1082                              l1126 103A  
                            l1056 1174                              l1048 112E  
                            l1080 0F4C                              l1144 10D4  
                            l1136 10A6                              l1128 1050  
                            l1058 1176                              l1090 0F7E  
                            l1082 0F56                              l1074 0F28  
                            l1146 10DA                              l1138 10B8  
                            l1092 0F82                              l1084 0F58  
                            l1076 0F2E                              l1068 0F1E  
                            l1148 10DE                              l1094 0FA0  
                            l1086 0F5E                              l1078 0F3C  
                            l1096 0FA6                              l1088 0F62  
                            l1098 0FA8                              _LATA 000F89  
                            _LATB 000F8A                              _LATC 000F8B  
                            abs@a 0001                              _main 1016  
                   readloadcell@i 0015                     readloadcell@x 0013  
                            prodh 000FF4                              prodl 000FF3  
                            start 0000                      ___param_bank 000000  
                           ??_abs 0003    __size_of_OSCILLATOR_Initialize 0014  
   __end_of_OSCILLATOR_Initialize 12F6                       ?_SPI1_Close 0001  
                           ?_main 0001  SPI1_Open@spi1UniqueConfiguration 0002  
                 __end_of___lldiv 1198                             _TRISA 000F92  
                           _TRISB 000F93                             _TRISC 000F94  
              __size_of_SPI1_Open 0094                             tablat 000FF5  
                           status 000FD8          __size_of_SPI1_Initialize 0012  
         __size_of_SPI1_WriteByte 0008                     writepot@level 0003  
                 __initialization 1308                      __end_of_main 10F4  
                          ??_main 001C                     __activetblptr 000001  
                          _ANCON0 000F48                            _ANCON1 000F49  
                          _ODCON1 000F42                            _ODCON2 000F41  
                          _ODCON3 000F40                            _OSCCON 000FD3  
             __size_of_SPI1_Close 0004                 __end_of_SPI1_Open 122C  
                       ??___lldiv 0009                     ?_readloadcell 000E  
                    __mediumconst 0000                            tblptrh 000FF7  
                          tblptrl 000FF6                            tblptru 000FF8  
               _SYSTEM_Initialize 1316                  __end_of_writepot 1270  
                      __accesstop 0060           __end_of__initialization 1308  
              ?_SYSTEM_Initialize 0001                     ___rparam_used 000001  
                  __pcstackCOMRAM 0001               ??_SYSTEM_Initialize 0001  
               ??_SPI1_Initialize 0001                _spi1_configuration 0F01  
                  ??_readloadcell 0012         __end_of_SYSTEM_Initialize 1324  
                  _SPI1_WriteByte 1324                      ??_SPI1_Close 0001  
                         _REFOCON 000F3D                           _OSCCON2 000F87  
                         _OSCTUNE 000F9B                           _SSP1ADD 000FC8  
                         _SSP1BUF 000FC9            __end_of_SPI1_WriteByte 132C  
              __end_of_SPI1_Close 1330                           __Hparam 0000  
                         __Lparam 0000                           ___lldiv 10F4  
                    __psmallconst 0F00                           __pcinit 1308  
                         __ramtop 0F00                           __ptext0 1016  
                         __ptext1 122C                           __ptext2 1324  
                         __ptext3 1198                           __ptext4 132C  
                         __ptext5 0F06                           __ptext6 10F4  
                         __ptext7 1270                           __ptext8 1316  
                         __ptext9 12F6                         ?_writepot 0001  
           _OSCILLATOR_Initialize 12E2                      __size_of_abs 0040  
        ??_PIN_MANAGER_Initialize 0001        __size_of_SYSTEM_Initialize 000E  
            end_of_initialization 1308                   ?_SPI1_WriteByte 0001  
            __end_of_readloadcell 1016                   ___lldiv@divisor 0005  
                 ___lldiv@counter 000D                         _SPI1_Open 1198  
                       _PORTAbits 000F80                        ??_writepot 0003  
                       _TRISBbits 000F93                   _SPI1_Initialize 12F6  
                      ?_SPI1_Open 0001            ?_OSCILLATOR_Initialize 0001  
             start_initialization 1308   __size_of_PIN_MANAGER_Initialize 0032  
                     __end_of_abs 12B0           __end_of_SPI1_Initialize 1308  
           __size_of_readloadcell 0110            _PIN_MANAGER_Initialize 12B0  
                        ?___lldiv 0001                       ??_SPI1_Open 0001  
                     __smallconst 0F00                      _readloadcell 0F06  
               __size_of_writepot 0044                  ??_SPI1_WriteByte 0001  
                        _LATAbits 000F89                          _LATBbits 000F8A  
                        _PIR1bits 000F9E                          _SSP1CON1 000FC6  
                        _SSP1CON2 000FC5                          _SSP1STAT 000FC7  
                       main@load2 001F                  ?_SPI1_Initialize 0001  
                     _INTCON2bits 000FF1                          __Hrparam 0000  
                        __Lrparam 0000                      __Lsmallconst 0F00  
         ??_OSCILLATOR_Initialize 0001                  __size_of___lldiv 00A4  
                        __ptext10 12B0                          __ptext11 12E2  
                    _SSP1CON1bits 000FC6                     __size_of_main 00DE  
         readloadcell@sensitivity 000E                 readloadcell@data1 0017  
               readloadcell@data2 0018                          main@diff 001E  
                        main@load 0020                          _writepot 122C  
                      _INTCONbits 000FF2                  ___lldiv@dividend 0001  
         ?_PIN_MANAGER_Initialize 0001                        _SPI1_Close 132C  
                ___lldiv@quotient 0009    __end_of_PIN_MANAGER_Initialize 12E2  
      __end_of_spi1_configuration 0F05  
